; Function Attrs: nounwind uwtable
define internal ptr @unicode_decodeutf8stateful(ptr readnone captures(none) %0, ptr noundef %1) #0 {
  %3 = alloca ptr, align 8
  %4 = alloca i64, align 8
  %5 = alloca ptr, align 8
  %6 = alloca i64, align 8
  call void @llvm.lifetime.start.p0(i64 8, ptr nonnull %3) #4
  call void @llvm.lifetime.start.p0(i64 8, ptr nonnull %4) #4
  call void @llvm.lifetime.start.p0(i64 8, ptr nonnull %5) #4
  store ptr null, ptr %5, align 8, !tbaa !3
  call void @llvm.lifetime.start.p0(i64 8, ptr nonnull %6) #4
  store i64 236892191, ptr %6, align 8, !tbaa !10
  %7 = call i32 (ptr, ptr, ...) @PyArg_ParseTuple(ptr noundef %1, ptr noundef nonnull @.str.378, ptr noundef nonnull %3, ptr noundef nonnull %4, ptr noundef nonnull %5) #4
  %.not = icmp eq i32 %7, 0
  br i1 %.not, label %19, label %8

8:                                                ; preds = %2
  %9 = load ptr, ptr %3, align 8, !tbaa !3
  %10 = load i64, ptr %4, align 8, !tbaa !10
  %11 = load ptr, ptr %5, align 8, !tbaa !3
  %12 = call ptr @PyUnicode_DecodeUTF8Stateful(ptr noundef %9, i64 noundef %10, ptr noundef %11, ptr noundef nonnull %6) #4
  %.not5 = icmp eq ptr %12, null
  %13 = load i64, ptr %6, align 8, !tbaa !10
  br i1 %.not5, label %14, label %17

14:                                               ; preds = %8
  %15 = icmp eq i64 %13, 236892191
  br i1 %15, label %19, label %16

16:                                               ; preds = %14
  call void @__assert_fail(ptr noundef nonnull @.str.379, ptr noundef nonnull @.str.360, i32 noundef 643, ptr noundef nonnull @__PRETTY_FUNCTION__.unicode_decodeutf8stateful) #5
  unreachable

17:                                               ; preds = %8
  %18 = call ptr (ptr, ...) @Py_BuildValue(ptr noundef nonnull @.str.371, ptr noundef nonnull %12, i64 noundef %13) #4
  br label %19

19:                                               ; preds = %14, %2, %17
  %.0 = phi ptr [ %18, %17 ], [ null, %2 ], [ null, %14 ]
  call void @llvm.lifetime.end.p0(i64 8, ptr nonnull %6) #4
  call void @llvm.lifetime.end.p0(i64 8, ptr nonnull %5) #4
  call void @llvm.lifetime.end.p0(i64 8, ptr nonnull %4) #4
  call void @llvm.lifetime.end.p0(i64 8, ptr nonnull %3) #4
  ret ptr %.0
}